target datalayout = "e-m:e-p270:32:32-p271:32:32-p272:64:64-i64:64-i128:128-f80:128-n8:16:32:64-S128"
target triple = "x86_64-pc-linux-gnu"

%struct.IDAMemRec = type { double, ptr, ptr, i32, double, double, ptr, i32, ptr, ptr, i32, ptr, ptr, i32, i32, double, double, ptr, i32, i32, i32, ptr, ptr, i32, ptr, ptr, ptr, i32, double, i32, i32, double, ptr, ptr, i32, ptr, ptr, i32, i32, i32, double, ptr, ptr, [6 x ptr], [6 x double], [6 x double], [6 x double], [6 x double], [6 x double], ptr, ptr, ptr, ptr, ptr, ptr, ptr, ptr, ptr, ptr, ptr, ptr, ptr, ptr, ptr, [6 x ptr], ptr, ptr, ptr, ptr, [6 x ptr], ptr, ptr, ptr, ptr, ptr, ptr, ptr, ptr, ptr, ptr, ptr, ptr, ptr, ptr, [6 x ptr], ptr, ptr, ptr, ptr, ptr, double, ptr, ptr, i32, i32, i32, i32, i32, i32, i32, double, double, double, i32, double, i32, i32, i32, i32, double, double, double, double, double, double, double, double, double, double, double, double, double, double, i32, i32, i32, i32, i32, i64, double, i32, i64, i64, i64, i64, i64, i64, i64, i64, i64, i64, i64, i64, i64, i64, i64, i64, i64, i64, i64, i64, i64, i64, i64, i64, ptr, ptr, ptr, i32, i32, i32, i32, i32, i32, i32, i32, i32, i32, i32, i32, i32, ptr, ptr, ptr, ptr, ptr, ptr, i32, i32, i32, i32, i32, i32, double, double, double, ptr, i32, ptr, ptr, double, double, double, ptr, ptr, ptr, double, double, i32, i32, i64, ptr, i32, i32, ptr, i32 }
%struct.IDASpilsMemRec = type { i32, i32, double, i32, i32, double, double, double, i64, i64, i64, i64, i64, i64, i64, i64, i64, i64, i64, i64, ptr, ptr, ptr, ptr, ptr, ptr, ptr, i64, ptr, ptr, ptr, ptr, i32, ptr, ptr }
%struct.SptfqmrMemRec = type { i32, ptr, ptr, ptr, ptr, ptr, ptr, ptr, ptr, ptr, ptr }

@.str = private unnamed_addr constant [11 x i8] c"IDASPTFQMR\00", align 1
@.str.10 = private unnamed_addr constant [16 x i8] c"IDASptfqmrSolve\00", align 1
@.str.11 = private unnamed_addr constant [65 x i8] c"The Jacobian x vector routine failed in an unrecoverable manner.\00", align 1
@.str.12 = private unnamed_addr constant [68 x i8] c"The preconditioner solve routine failed in an unrecoverable manner.\00", align 1

; Function Attrs: nounwind uwtable
define internal i32 @IDASptfqmrSolve(ptr noundef %0, ptr noundef %1, ptr noundef %2, ptr noundef %3, ptr noundef %4, ptr noundef %5) #0 {
  %7 = alloca i32, align 4
  %8 = alloca ptr, align 8
  %9 = alloca ptr, align 8
  %10 = alloca ptr, align 8
  %11 = alloca ptr, align 8
  %12 = alloca ptr, align 8
  %13 = alloca ptr, align 8
  %14 = alloca ptr, align 8
  %15 = alloca ptr, align 8
  %16 = alloca i32, align 4
  %17 = alloca i32, align 4
  %18 = alloca i32, align 4
  %19 = alloca i32, align 4
  %20 = alloca double, align 8
  %21 = alloca i32, align 4
  store ptr %0, ptr %8, align 8, !tbaa !9
  store ptr %1, ptr %9, align 8, !tbaa !62
  store ptr %2, ptr %10, align 8, !tbaa !62
  store ptr %3, ptr %11, align 8, !tbaa !62
  store ptr %4, ptr %12, align 8, !tbaa !62
  store ptr %5, ptr %13, align 8, !tbaa !62
  call void @llvm.lifetime.start.p0(i64 8, ptr %14) #5
  call void @llvm.lifetime.start.p0(i64 8, ptr %15) #5
  call void @llvm.lifetime.start.p0(i64 4, ptr %16) #5
  call void @llvm.lifetime.start.p0(i64 4, ptr %17) #5
  call void @llvm.lifetime.start.p0(i64 4, ptr %18) #5
  call void @llvm.lifetime.start.p0(i64 4, ptr %19) #5
  call void @llvm.lifetime.start.p0(i64 8, ptr %20) #5
  %22 = load ptr, ptr %8, align 8, !tbaa !9
  %23 = getelementptr inbounds nuw %struct.IDAMemRec, ptr %22, i32 0, i32 176
  %24 = load ptr, ptr %23, align 8, !tbaa !53
  store ptr %24, ptr %14, align 8, !tbaa !31
  %25 = load ptr, ptr %14, align 8, !tbaa !31
  %26 = getelementptr inbounds nuw %struct.IDASpilsMemRec, ptr %25, i32 0, i32 26
  %27 = load ptr, ptr %26, align 8, !tbaa !52
  store ptr %27, ptr %15, align 8, !tbaa !3
  %28 = load ptr, ptr %14, align 8, !tbaa !31
  %29 = getelementptr inbounds nuw %struct.IDASpilsMemRec, ptr %28, i32 0, i32 2
  %30 = load double, ptr %29, align 8, !tbaa !51
  %31 = load ptr, ptr %14, align 8, !tbaa !31
  %32 = getelementptr inbounds nuw %struct.IDASpilsMemRec, ptr %31, i32 0, i32 5
  %33 = load double, ptr %32, align 8, !tbaa !44
  %34 = fmul double %30, %33
  %35 = load ptr, ptr %8, align 8, !tbaa !9
  %36 = getelementptr inbounds nuw %struct.IDAMemRec, ptr %35, i32 0, i32 119
  %37 = load double, ptr %36, align 8, !tbaa !65
  %38 = fmul double %34, %37
  %39 = load ptr, ptr %14, align 8, !tbaa !31
  %40 = getelementptr inbounds nuw %struct.IDASpilsMemRec, ptr %39, i32 0, i32 7
  store double %38, ptr %40, align 8, !tbaa !66
  %41 = load ptr, ptr %11, align 8, !tbaa !62
  %42 = load ptr, ptr %14, align 8, !tbaa !31
  %43 = getelementptr inbounds nuw %struct.IDASpilsMemRec, ptr %42, i32 0, i32 23
  store ptr %41, ptr %43, align 8, !tbaa !67
  %44 = load ptr, ptr %12, align 8, !tbaa !62
  %45 = load ptr, ptr %14, align 8, !tbaa !31
  %46 = getelementptr inbounds nuw %struct.IDASpilsMemRec, ptr %45, i32 0, i32 24
  store ptr %44, ptr %46, align 8, !tbaa !68
  %47 = load ptr, ptr %13, align 8, !tbaa !62
  %48 = load ptr, ptr %14, align 8, !tbaa !31
  %49 = getelementptr inbounds nuw %struct.IDASpilsMemRec, ptr %48, i32 0, i32 25
  store ptr %47, ptr %49, align 8, !tbaa !69
  %50 = load ptr, ptr %14, align 8, !tbaa !31
  %51 = getelementptr inbounds nuw %struct.IDASpilsMemRec, ptr %50, i32 0, i32 29
  %52 = load ptr, ptr %51, align 8, !tbaa !40
  %53 = icmp eq ptr %52, null
  %54 = select i1 %53, i32 0, i32 1
  store i32 %54, ptr %16, align 4, !tbaa !7
  %55 = load ptr, ptr %14, align 8, !tbaa !31
  %56 = getelementptr inbounds nuw %struct.IDASpilsMemRec, ptr %55, i32 0, i32 22
  %57 = load ptr, ptr %56, align 8, !tbaa !50
  call void @N_VConst(double noundef 0.000000e+00, ptr noundef %57)
  %58 = load ptr, ptr %15, align 8, !tbaa !3
  %59 = load ptr, ptr %8, align 8, !tbaa !9
  %60 = load ptr, ptr %14, align 8, !tbaa !31
  %61 = getelementptr inbounds nuw %struct.IDASpilsMemRec, ptr %60, i32 0, i32 22
  %62 = load ptr, ptr %61, align 8, !tbaa !50
  %63 = load ptr, ptr %9, align 8, !tbaa !62
  %64 = load i32, ptr %16, align 4, !tbaa !7
  %65 = load ptr, ptr %14, align 8, !tbaa !31
  %66 = getelementptr inbounds nuw %struct.IDASpilsMemRec, ptr %65, i32 0, i32 7
  %67 = load double, ptr %66, align 8, !tbaa !66
  %68 = load ptr, ptr %8, align 8, !tbaa !9
  %69 = load ptr, ptr %10, align 8, !tbaa !62
  %70 = load ptr, ptr %10, align 8, !tbaa !62
  %71 = call i32 @SptfqmrSolve(ptr noundef %58, ptr noundef %59, ptr noundef %62, ptr noundef %63, i32 noundef %64, double noundef %67, ptr noundef %68, ptr noundef %69, ptr noundef %70, ptr noundef @IDASpilsAtimes, ptr noundef @IDASpilsPSolve, ptr noundef %20, ptr noundef %17, ptr noundef %18)
  store i32 %71, ptr %19, align 4, !tbaa !7
  %72 = load i32, ptr %17, align 4, !tbaa !7
  %73 = icmp eq i32 %72, 0
  br i1 %73, label %74, label %79

74:                                               ; preds = %6
  %75 = load ptr, ptr %15, align 8, !tbaa !3
  %76 = getelementptr inbounds nuw %struct.SptfqmrMemRec, ptr %75, i32 0, i32 8
  %77 = load ptr, ptr %76, align 8, !tbaa !70
  %78 = load ptr, ptr %9, align 8, !tbaa !62
  call void @N_VScale(double noundef 1.000000e+00, ptr noundef %77, ptr noundef %78)
  br label %84

79:                                               ; preds = %6
  %80 = load ptr, ptr %14, align 8, !tbaa !31
  %81 = getelementptr inbounds nuw %struct.IDASpilsMemRec, ptr %80, i32 0, i32 22
  %82 = load ptr, ptr %81, align 8, !tbaa !50
  %83 = load ptr, ptr %9, align 8, !tbaa !62
  call void @N_VScale(double noundef 1.000000e+00, ptr noundef %82, ptr noundef %83)
  br label %84

84:                                               ; preds = %79, %74
  %85 = load i32, ptr %17, align 4, !tbaa !7
  %86 = sext i32 %85 to i64
  %87 = load ptr, ptr %14, align 8, !tbaa !31
  %88 = getelementptr inbounds nuw %struct.IDASpilsMemRec, ptr %87, i32 0, i32 9
  %89 = load i64, ptr %88, align 8, !tbaa !56
  %90 = add nsw i64 %89, %86
  store i64 %90, ptr %88, align 8, !tbaa !56
  %91 = load i32, ptr %18, align 4, !tbaa !7
  %92 = sext i32 %91 to i64
  %93 = load ptr, ptr %14, align 8, !tbaa !31
  %94 = getelementptr inbounds nuw %struct.IDASpilsMemRec, ptr %93, i32 0, i32 10
  %95 = load i64, ptr %94, align 8, !tbaa !55
  %96 = add nsw i64 %95, %92
  store i64 %96, ptr %94, align 8, !tbaa !55
  %97 = load i32, ptr %19, align 4, !tbaa !7
  %98 = icmp ne i32 %97, 0
  br i1 %98, label %99, label %104

99:                                               ; preds = %84
  %100 = load ptr, ptr %14, align 8, !tbaa !31
  %101 = getelementptr inbounds nuw %struct.IDASpilsMemRec, ptr %100, i32 0, i32 11
  %102 = load i64, ptr %101, align 8, !tbaa !54
  %103 = add nsw i64 %102, 1
  store i64 %103, ptr %101, align 8, !tbaa !54
  br label %104

104:                                              ; preds = %99, %84
  %105 = load i32, ptr %19, align 4, !tbaa !7
  %106 = sext i32 %105 to i64
  %107 = load ptr, ptr %14, align 8, !tbaa !31
  %108 = getelementptr inbounds nuw %struct.IDASpilsMemRec, ptr %107, i32 0, i32 27
  store i64 %106, ptr %108, align 8, !tbaa !46
  %109 = load i32, ptr %19, align 4, !tbaa !7
  switch i32 %109, label %120 [
    i32 0, label %110
    i32 1, label %111
    i32 2, label %112
    i32 3, label %113
    i32 4, label %114
    i32 -1, label %115
    i32 -2, label %116
    i32 -3, label %118
  ]

110:                                              ; preds = %104
  store i32 0, ptr %7, align 4
  store i32 1, ptr %21, align 4
  br label %121

111:                                              ; preds = %104
  store i32 1, ptr %7, align 4
  store i32 1, ptr %21, align 4
  br label %121

112:                                              ; preds = %104
  store i32 1, ptr %7, align 4
  store i32 1, ptr %21, align 4
  br label %121

113:                                              ; preds = %104
  store i32 1, ptr %7, align 4
  store i32 1, ptr %21, align 4
  br label %121

114:                                              ; preds = %104
  store i32 1, ptr %7, align 4
  store i32 1, ptr %21, align 4
  br label %121

115:                                              ; preds = %104
  store i32 -1, ptr %7, align 4
  store i32 1, ptr %21, align 4
  br label %121

116:                                              ; preds = %104
  %117 = load ptr, ptr %8, align 8, !tbaa !9
  call void (ptr, i32, ptr, ptr, ptr, ...) @IDAProcessError(ptr noundef %117, i32 noundef -2, ptr noundef @.str, ptr noundef @.str.10, ptr noundef @.str.11)
  store i32 -1, ptr %7, align 4
  store i32 1, ptr %21, align 4
  br label %121

118:                                              ; preds = %104
  %119 = load ptr, ptr %8, align 8, !tbaa !9
  call void (ptr, i32, ptr, ptr, ptr, ...) @IDAProcessError(ptr noundef %119, i32 noundef -3, ptr noundef @.str, ptr noundef @.str.10, ptr noundef @.str.12)
  store i32 -1, ptr %7, align 4
  store i32 1, ptr %21, align 4
  br label %121

120:                                              ; preds = %104
  store i32 0, ptr %7, align 4
  store i32 1, ptr %21, align 4
  br label %121

121:                                              ; preds = %120, %118, %116, %115, %114, %113, %112, %111, %110
  call void @llvm.lifetime.end.p0(i64 8, ptr %20) #5
  call void @llvm.lifetime.end.p0(i64 4, ptr %19) #5
  call void @llvm.lifetime.end.p0(i64 4, ptr %18) #5
  call void @llvm.lifetime.end.p0(i64 4, ptr %17) #5
  call void @llvm.lifetime.end.p0(i64 4, ptr %16) #5
  call void @llvm.lifetime.end.p0(i64 8, ptr %15) #5
  call void @llvm.lifetime.end.p0(i64 8, ptr %14) #5
  %122 = load i32, ptr %7, align 4
  ret i32 %122
}