; Function Attrs: nounwind uwtable
define internal range(i32 -1, 2) i32 @IDASptfqmrSolve(ptr noundef %0, ptr noundef %1, ptr noundef %2, ptr noundef %3, ptr noundef %4, ptr noundef %5) #0 {
  %7 = alloca i32, align 4
  %8 = alloca i32, align 4
  %9 = alloca double, align 8
  call void @llvm.lifetime.start.p0(i64 4, ptr nonnull %7) #8
  call void @llvm.lifetime.start.p0(i64 4, ptr nonnull %8) #8
  call void @llvm.lifetime.start.p0(i64 8, ptr nonnull %9) #8
  %10 = getelementptr inbounds nuw i8, ptr %0, i64 1632
  %11 = load ptr, ptr %10, align 8, !tbaa !42
  %12 = getelementptr inbounds nuw i8, ptr %11, i64 192
  %13 = load ptr, ptr %12, align 8, !tbaa !41
  %14 = getelementptr inbounds nuw i8, ptr %11, i64 8
  %15 = load double, ptr %14, align 8, !tbaa !40
  %16 = getelementptr inbounds nuw i8, ptr %11, i64 24
  %17 = load double, ptr %16, align 8, !tbaa !33
  %18 = fmul double %15, %17
  %19 = getelementptr inbounds nuw i8, ptr %0, i64 1240
  %20 = load double, ptr %19, align 8, !tbaa !52
  %21 = fmul double %18, %20
  %22 = getelementptr inbounds nuw i8, ptr %11, i64 40
  store double %21, ptr %22, align 8, !tbaa !53
  %23 = getelementptr inbounds nuw i8, ptr %11, i64 168
  store ptr %3, ptr %23, align 8, !tbaa !54
  %24 = getelementptr inbounds nuw i8, ptr %11, i64 176
  store ptr %4, ptr %24, align 8, !tbaa !55
  %25 = getelementptr inbounds nuw i8, ptr %11, i64 184
  store ptr %5, ptr %25, align 8, !tbaa !56
  %26 = getelementptr inbounds nuw i8, ptr %11, i64 216
  %27 = load ptr, ptr %26, align 8, !tbaa !43
  %28 = icmp ne ptr %27, null
  %29 = zext i1 %28 to i32
  %30 = getelementptr inbounds nuw i8, ptr %11, i64 160
  %31 = load ptr, ptr %30, align 8, !tbaa !39
  tail call void @N_VConst(double noundef 0.000000e+00, ptr noundef %31) #8
  %32 = load ptr, ptr %30, align 8, !tbaa !39
  %33 = load double, ptr %22, align 8, !tbaa !53
  %34 = call i32 @SptfqmrSolve(ptr noundef %13, ptr noundef %0, ptr noundef %32, ptr noundef %1, i32 noundef %29, double noundef %33, ptr noundef %0, ptr noundef %2, ptr noundef %2, ptr noundef nonnull @IDASpilsAtimes, ptr noundef nonnull @IDASpilsPSolve, ptr noundef nonnull %9, ptr noundef nonnull %7, ptr noundef nonnull %8) #8
  %35 = load i32, ptr %7, align 4, !tbaa !57
  %36 = icmp eq i32 %35, 0
  %37 = getelementptr inbounds nuw i8, ptr %13, i64 64
  %.sink.in = select i1 %36, ptr %37, ptr %30
  %.sink = load ptr, ptr %.sink.in, align 8, !tbaa !58
  call void @N_VScale(double noundef 1.000000e+00, ptr noundef %.sink, ptr noundef %1) #8
  %38 = load i32, ptr %7, align 4, !tbaa !57
  %39 = sext i32 %38 to i64
  %40 = getelementptr inbounds nuw i8, ptr %11, i64 56
  %41 = load i64, ptr %40, align 8, !tbaa !59
  %42 = add nsw i64 %41, %39
  store i64 %42, ptr %40, align 8, !tbaa !59
  %43 = load i32, ptr %8, align 4, !tbaa !57
  %44 = sext i32 %43 to i64
  %45 = getelementptr inbounds nuw i8, ptr %11, i64 64
  %46 = load i64, ptr %45, align 8, !tbaa !60
  %47 = add nsw i64 %46, %44
  store i64 %47, ptr %45, align 8, !tbaa !60
  %.not = icmp eq i32 %34, 0
  br i1 %.not, label %.thread, label %49

.thread:                                          ; preds = %6
  %48 = getelementptr inbounds nuw i8, ptr %11, i64 200
  store i64 0, ptr %48, align 8, !tbaa !35
  br label %58

49:                                               ; preds = %6
  %50 = getelementptr inbounds nuw i8, ptr %11, i64 72
  %51 = load i64, ptr %50, align 8, !tbaa !61
  %52 = add nsw i64 %51, 1
  store i64 %52, ptr %50, align 8, !tbaa !61
  %53 = sext i32 %34 to i64
  %54 = getelementptr inbounds nuw i8, ptr %11, i64 200
  store i64 %53, ptr %54, align 8, !tbaa !35
  switch i32 %34, label %58 [
    i32 -3, label %57
    i32 1, label %59
    i32 2, label %59
    i32 3, label %59
    i32 4, label %59
    i32 -1, label %55
    i32 -2, label %56
  ]

55:                                               ; preds = %49
  br label %59

56:                                               ; preds = %49
  call void (ptr, i32, ptr, ptr, ptr, ...) @IDAProcessError(ptr noundef nonnull %0, i32 noundef -2, ptr noundef nonnull @.str, ptr noundef nonnull @.str.10, ptr noundef nonnull @.str.11) #8
  br label %59

57:                                               ; preds = %49
  call void (ptr, i32, ptr, ptr, ptr, ...) @IDAProcessError(ptr noundef nonnull %0, i32 noundef -3, ptr noundef nonnull @.str, ptr noundef nonnull @.str.10, ptr noundef nonnull @.str.12) #8
  br label %59

58:                                               ; preds = %.thread, %49
  br label %59

59:                                               ; preds = %49, %49, %49, %49, %58, %57, %56, %55
  %.0 = phi i32 [ 0, %58 ], [ -1, %57 ], [ -1, %56 ], [ -1, %55 ], [ 1, %49 ], [ 1, %49 ], [ 1, %49 ], [ 1, %49 ]
  call void @llvm.lifetime.end.p0(i64 8, ptr nonnull %9) #8
  call void @llvm.lifetime.end.p0(i64 4, ptr nonnull %8) #8
  call void @llvm.lifetime.end.p0(i64 4, ptr nonnull %7) #8
  ret i32 %.0
}